; Function Attrs: mustprogress uwtable
define hidden void @_ZN4cvc58internal6theory11quantifiers5ieval5State16setQuantInactiveERNS3_9QuantInfoE(ptr noundef nonnull align 8 dereferenceable(424) %0, ptr noundef nonnull align 8 dereferenceable(280) %1) local_unnamed_addr #3 align 2 {
  %3 = tail call noundef zeroext i1 @_ZNK4cvc58internal6theory11quantifiers5ieval9QuantInfo8isActiveEv(ptr noundef nonnull align 8 dereferenceable(280) %1)
  br i1 %3, label %4, label %18

4:                                                ; preds = %2
  tail call void @_ZN4cvc58internal6theory11quantifiers5ieval9QuantInfo9setActiveEb(ptr noundef nonnull align 8 dereferenceable(280) %1, i1 noundef zeroext false)
  %5 = getelementptr inbounds nuw i8, ptr %0, i64 416
  %6 = load i64, ptr %5, align 8, !tbaa !114
  %7 = add i64 %6, -1
  %8 = getelementptr inbounds nuw i8, ptr %0, i64 384
  %9 = load ptr, ptr %8, align 8, !tbaa !75
  %10 = load ptr, ptr %9, align 8, !tbaa !76
  %11 = getelementptr inbounds nuw i8, ptr %10, i64 16
  %12 = load ptr, ptr %11, align 8, !tbaa !84
  %13 = getelementptr inbounds i8, ptr %12, i64 -8
  %14 = load ptr, ptr %13, align 8, !tbaa !86
  %15 = icmp eq ptr %9, %14
  br i1 %15, label %_ZN4cvc57context3CDOImEaSERKm.exit, label %16

16:                                               ; preds = %4
  %17 = getelementptr inbounds nuw i8, ptr %0, i64 376
  tail call void @_ZN4cvc57context10ContextObj6updateEv(ptr noundef nonnull align 8 dereferenceable(48) %17)
  br label %_ZN4cvc57context3CDOImEaSERKm.exit

_ZN4cvc57context3CDOImEaSERKm.exit:               ; preds = %4, %16
  store i64 %7, ptr %5, align 8, !tbaa !87
  br label %18

18:                                               ; preds = %_ZN4cvc57context3CDOImEaSERKm.exit, %2
  ret void
}